; Function Attrs: mustprogress nofree norecurse nosync nounwind willreturn memory(read, argmem: write, inaccessiblemem: none) uwtable
define dso_local void @_ZN4Luau13CstStatReturnC2ENS_8AstArrayINS_8PositionEEE(ptr noundef nonnull writeonly align 8 captures(none) dereferenceable(24) initializes((0, 4), (8, 24)) %0, ptr %1, i64 %2) unnamed_addr #4 align 2 {
  %4 = load i32, ptr @_ZN4Luau7CstRttiINS_13CstStatReturnEE5valueE, align 4, !tbaa !4
  store i32 %4, ptr %0, align 8, !tbaa !8
  %5 = getelementptr inbounds nuw i8, ptr %0, i64 8
  store ptr %1, ptr %5, align 8, !tbaa !22
  %.sroa.2.0..sroa_idx = getelementptr inbounds nuw i8, ptr %0, i64 16
  store i64 %2, ptr %.sroa.2.0..sroa_idx, align 8, !tbaa !14
  ret void
}